; Function Attrs: inlinehint mustprogress uwtable
define internal fastcc noundef zeroext i1 @_ZN4cvc58internal13preprocessing4util3iteL9isTermITEENS0_12NodeTemplateILb0EEE(ptr noundef nonnull %0) unnamed_addr #12 personality ptr @__gxx_personality_v0 {
  %2 = alloca %"class.cvc5::internal::TypeNode", align 8
  %3 = load ptr, ptr %0, align 8, !tbaa !36
  %4 = getelementptr inbounds nuw i8, ptr %3, i64 8
  %5 = load i64, ptr %4, align 8
  %6 = and i64 %5, 1023
  %7 = icmp eq i64 %6, 26
  br i1 %7, label %8, label %.critedge

8:                                                ; preds = %1
  call void @llvm.lifetime.start.p0(i64 8, ptr nonnull %2) #28
  call void @_ZNK4cvc58internal12NodeTemplateILb0EE7getTypeEb(ptr dead_on_unwind nonnull writable sret(%"class.cvc5::internal::TypeNode") align 8 %2, ptr noundef nonnull align 8 dereferenceable(8) %0, i1 noundef zeroext false)
  %9 = load ptr, ptr %2, align 8, !tbaa !93
  %10 = getelementptr inbounds nuw i8, ptr %9, i64 8
  %11 = load i64, ptr %10, align 8
  %12 = and i64 %11, 1023
  %13 = icmp eq i64 %12, 13
  br i1 %13, label %14, label %18

14:                                               ; preds = %8
  %15 = invoke noundef nonnull align 4 dereferenceable(4) ptr @_ZNK4cvc58internal4expr9NodeValue8getConstINS0_12TypeConstantEEERKT_v(ptr noundef nonnull align 8 dereferenceable(24) %9)
          to label %.noexc unwind label %34

.noexc:                                           ; preds = %14
  %16 = load i32, ptr %15, align 4, !tbaa !95
  %17 = icmp ne i32 %16, 2
  %.pre = load ptr, ptr %2, align 8, !tbaa !93
  br label %18

18:                                               ; preds = %8, %.noexc
  %19 = phi ptr [ %9, %8 ], [ %.pre, %.noexc ]
  %20 = phi i1 [ true, %8 ], [ %17, %.noexc ]
  %21 = load i64, ptr %19, align 8
  %22 = and i64 %21, 1152920405095219200
  %.not.i.i = icmp eq i64 %22, 1152920405095219200
  br i1 %.not.i.i, label %_ZN4cvc58internal8TypeNodeD2Ev.exit, label %23, !prof !71

23:                                               ; preds = %18
  %24 = add i64 %21, 1152920405095219200
  %25 = and i64 %24, 1152920405095219200
  %26 = and i64 %21, -1152920405095219201
  %27 = or disjoint i64 %25, %26
  store i64 %27, ptr %19, align 8
  %28 = icmp eq i64 %25, 0
  br i1 %28, label %29, label %_ZN4cvc58internal8TypeNodeD2Ev.exit, !prof !71

29:                                               ; preds = %23
  invoke void @_ZN4cvc58internal4expr9NodeValue15markForDeletionEv(ptr noundef nonnull align 8 dereferenceable(24) %19)
          to label %_ZN4cvc58internal8TypeNodeD2Ev.exit unwind label %30

30:                                               ; preds = %29
  %31 = landingpad { ptr, i32 }
          catch ptr null
  %32 = extractvalue { ptr, i32 } %31, 0
  call void @__clang_call_terminate(ptr %32) #30
  unreachable

_ZN4cvc58internal8TypeNodeD2Ev.exit:              ; preds = %18, %23, %29
  call void @llvm.lifetime.end.p0(i64 8, ptr nonnull %2) #28
  br label %.critedge

.critedge:                                        ; preds = %1, %_ZN4cvc58internal8TypeNodeD2Ev.exit
  %33 = phi i1 [ %20, %_ZN4cvc58internal8TypeNodeD2Ev.exit ], [ false, %1 ]
  ret i1 %33

34:                                               ; preds = %14
  %35 = landingpad { ptr, i32 }
          cleanup
  call void @_ZN4cvc58internal8TypeNodeD2Ev(ptr noundef nonnull align 8 dereferenceable(8) %2) #28
  call void @llvm.lifetime.end.p0(i64 8, ptr nonnull %2) #28
  resume { ptr, i32 } %35
}